target datalayout = "e-m:e-p270:32:32-p271:32:32-p272:64:64-i64:64-i128:128-f80:128-n8:16:32:64-S128"
target triple = "x86_64-pc-linux-gnu"

; Function Attrs: nounwind uwtable
define hidden zeroext i8 @mbedtls_ecc_group_to_psa(i32 noundef %0, ptr noundef %1) #0 {
  %3 = alloca i8, align 1
  %4 = alloca i32, align 4
  %5 = alloca ptr, align 8
  store i32 %0, ptr %4, align 4, !tbaa !3
  store ptr %1, ptr %5, align 8, !tbaa !17
  %6 = load i32, ptr %4, align 4, !tbaa !3
  switch i32 %6, label %31 [
    i32 1, label %7
    i32 2, label %9
    i32 3, label %11
    i32 4, label %13
    i32 5, label %15
    i32 6, label %17
    i32 7, label %19
    i32 8, label %21
    i32 9, label %23
    i32 10, label %25
    i32 12, label %27
    i32 13, label %29
  ]

7:                                                ; preds = %2
  %8 = load ptr, ptr %5, align 8, !tbaa !17
  store i64 192, ptr %8, align 8, !tbaa !9
  store i8 18, ptr %3, align 1
  br label %33

9:                                                ; preds = %2
  %10 = load ptr, ptr %5, align 8, !tbaa !17
  store i64 224, ptr %10, align 8, !tbaa !9
  store i8 18, ptr %3, align 1
  br label %33

11:                                               ; preds = %2
  %12 = load ptr, ptr %5, align 8, !tbaa !17
  store i64 256, ptr %12, align 8, !tbaa !9
  store i8 18, ptr %3, align 1
  br label %33

13:                                               ; preds = %2
  %14 = load ptr, ptr %5, align 8, !tbaa !17
  store i64 384, ptr %14, align 8, !tbaa !9
  store i8 18, ptr %3, align 1
  br label %33

15:                                               ; preds = %2
  %16 = load ptr, ptr %5, align 8, !tbaa !17
  store i64 521, ptr %16, align 8, !tbaa !9
  store i8 18, ptr %3, align 1
  br label %33

17:                                               ; preds = %2
  %18 = load ptr, ptr %5, align 8, !tbaa !17
  store i64 256, ptr %18, align 8, !tbaa !9
  store i8 48, ptr %3, align 1
  br label %33

19:                                               ; preds = %2
  %20 = load ptr, ptr %5, align 8, !tbaa !17
  store i64 384, ptr %20, align 8, !tbaa !9
  store i8 48, ptr %3, align 1
  br label %33

21:                                               ; preds = %2
  %22 = load ptr, ptr %5, align 8, !tbaa !17
  store i64 512, ptr %22, align 8, !tbaa !9
  store i8 48, ptr %3, align 1
  br label %33

23:                                               ; preds = %2
  %24 = load ptr, ptr %5, align 8, !tbaa !17
  store i64 255, ptr %24, align 8, !tbaa !9
  store i8 65, ptr %3, align 1
  br label %33

25:                                               ; preds = %2
  %26 = load ptr, ptr %5, align 8, !tbaa !17
  store i64 192, ptr %26, align 8, !tbaa !9
  store i8 23, ptr %3, align 1
  br label %33

27:                                               ; preds = %2
  %28 = load ptr, ptr %5, align 8, !tbaa !17
  store i64 256, ptr %28, align 8, !tbaa !9
  store i8 23, ptr %3, align 1
  br label %33

29:                                               ; preds = %2
  %30 = load ptr, ptr %5, align 8, !tbaa !17
  store i64 448, ptr %30, align 8, !tbaa !9
  store i8 65, ptr %3, align 1
  br label %33

31:                                               ; preds = %2
  %32 = load ptr, ptr %5, align 8, !tbaa !17
  store i64 0, ptr %32, align 8, !tbaa !9
  store i8 0, ptr %3, align 1
  br label %33

33:                                               ; preds = %31, %29, %27, %25, %23, %21, %19, %17, %15, %13, %11, %9, %7
  %34 = load i8, ptr %3, align 1
  ret i8 %34
}