; Function Attrs: mustprogress nofree norecurse nosync nounwind willreturn memory(argmem: write) uwtable
define hidden zeroext range(i8 0, 66) i8 @mbedtls_ecc_group_to_psa(i32 noundef %0, ptr noundef writeonly captures(none) initializes((0, 8)) %1) local_unnamed_addr #3 {
  %switch.tableidx = add i32 %0, -1
  %3 = icmp ult i32 %switch.tableidx, 13
  br i1 %3, label %switch.lookup, label %6

switch.lookup:                                    ; preds = %2
  %4 = zext nneg i32 %switch.tableidx to i64
  %switch.gep = getelementptr inbounds nuw [13 x i64], ptr @switch.table.mbedtls_ecc_group_to_psa, i64 0, i64 %4
  %switch.load = load i64, ptr %switch.gep, align 8
  %5 = zext nneg i32 %switch.tableidx to i64
  %switch.gep14 = getelementptr inbounds nuw [13 x i8], ptr @switch.table.mbedtls_ecc_group_to_psa.1, i64 0, i64 %5
  %switch.load15 = load i8, ptr %switch.gep14, align 1
  br label %6

6:                                                ; preds = %2, %switch.lookup
  %.sink = phi i64 [ %switch.load, %switch.lookup ], [ 0, %2 ]
  %.0 = phi i8 [ %switch.load15, %switch.lookup ], [ 0, %2 ]
  store i64 %.sink, ptr %1, align 8, !tbaa !11
  ret i8 %.0
}